target datalayout = "e-m:e-p270:32:32-p271:32:32-p272:64:64-i64:64-i128:128-f80:128-n8:16:32:64-S128"
target triple = "x86_64-unknown-linux-gnu"

%"class.cvc5::context::Context" = type { ptr, %"class.std::vector", ptr, ptr }
%"class.std::vector" = type { %"struct.std::_Vector_base" }
%"struct.std::_Vector_base" = type { %"struct.std::_Vector_base<cvc5::context::Scope *, std::allocator<cvc5::context::Scope *>>::_Vector_impl" }
%"struct.std::_Vector_base<cvc5::context::Scope *, std::allocator<cvc5::context::Scope *>>::_Vector_impl" = type { %"struct.std::_Vector_base<cvc5::context::Scope *, std::allocator<cvc5::context::Scope *>>::_Vector_impl_data" }
%"struct.std::_Vector_base<cvc5::context::Scope *, std::allocator<cvc5::context::Scope *>>::_Vector_impl_data" = type { ptr, ptr, ptr }
%"class.cvc5::context::ContextNotifyObj" = type { ptr, ptr, ptr }

; Function Attrs: mustprogress nounwind uwtable
define linkonce_odr hidden noundef nonnull align 8 dereferenceable(8) ptr @_ZN4cvc57context16ContextNotifyObj4prevEv(ptr noundef nonnull align 8 dereferenceable(24) %this) #5 comdat align 2 {
entry:
  %this.addr = alloca ptr, align 8
  store ptr %this, ptr %this.addr, align 8
  %this1 = load ptr, ptr %this.addr, align 8
  %d_ppCNOprev = getelementptr inbounds %"class.cvc5::context::ContextNotifyObj", ptr %this1, i32 0, i32 2
  ret ptr %d_ppCNOprev
}

; Function Attrs: mustprogress nounwind uwtable
define linkonce_odr hidden noundef nonnull align 8 dereferenceable(8) ptr @_ZN4cvc57context16ContextNotifyObj4nextEv(ptr noundef nonnull align 8 dereferenceable(24) %this) #5 comdat align 2 {
entry:
  %this.addr = alloca ptr, align 8
  store ptr %this, ptr %this.addr, align 8
  %this1 = load ptr, ptr %this.addr, align 8
  %d_pCNOnext = getelementptr inbounds %"class.cvc5::context::ContextNotifyObj", ptr %this1, i32 0, i32 1
  ret ptr %d_pCNOnext
}

; Function Attrs: mustprogress uwtable
define void @_ZN4cvc57context7Context16addNotifyObjPostEPNS0_16ContextNotifyObjE(ptr noundef nonnull align 8 dereferenceable(48) %this, ptr noundef %pCNO) #4 align 2 {
entry:
  %this.addr = alloca ptr, align 8
  %pCNO.addr = alloca ptr, align 8
  store ptr %this, ptr %this.addr, align 8
  store ptr %pCNO, ptr %pCNO.addr, align 8
  %this1 = load ptr, ptr %this.addr, align 8
  %d_pCNOpost = getelementptr inbounds %"class.cvc5::context::Context", ptr %this1, i32 0, i32 3
  %0 = load ptr, ptr %d_pCNOpost, align 8
  %cmp = icmp ne ptr %0, null
  br i1 %cmp, label %if.then, label %if.end

if.then:                                          ; preds = %entry
  %1 = load ptr, ptr %pCNO.addr, align 8
  %call = call noundef nonnull align 8 dereferenceable(8) ptr @_ZN4cvc57context16ContextNotifyObj4nextEv(ptr noundef nonnull align 8 dereferenceable(24) %1)
  %d_pCNOpost2 = getelementptr inbounds %"class.cvc5::context::Context", ptr %this1, i32 0, i32 3
  %2 = load ptr, ptr %d_pCNOpost2, align 8
  %call3 = call noundef nonnull align 8 dereferenceable(8) ptr @_ZN4cvc57context16ContextNotifyObj4prevEv(ptr noundef nonnull align 8 dereferenceable(24) %2)
  store ptr %call, ptr %call3, align 8
  br label %if.end

if.end:                                           ; preds = %if.then, %entry
  %d_pCNOpost4 = getelementptr inbounds %"class.cvc5::context::Context", ptr %this1, i32 0, i32 3
  %3 = load ptr, ptr %d_pCNOpost4, align 8
  %4 = load ptr, ptr %pCNO.addr, align 8
  %call5 = call noundef nonnull align 8 dereferenceable(8) ptr @_ZN4cvc57context16ContextNotifyObj4nextEv(ptr noundef nonnull align 8 dereferenceable(24) %4)
  store ptr %3, ptr %call5, align 8
  %d_pCNOpost6 = getelementptr inbounds %"class.cvc5::context::Context", ptr %this1, i32 0, i32 3
  %5 = load ptr, ptr %pCNO.addr, align 8
  %call7 = call noundef nonnull align 8 dereferenceable(8) ptr @_ZN4cvc57context16ContextNotifyObj4prevEv(ptr noundef nonnull align 8 dereferenceable(24) %5)
  store ptr %d_pCNOpost6, ptr %call7, align 8
  %6 = load ptr, ptr %pCNO.addr, align 8
  %d_pCNOpost8 = getelementptr inbounds %"class.cvc5::context::Context", ptr %this1, i32 0, i32 3
  store ptr %6, ptr %d_pCNOpost8, align 8
  ret void
}